; Function Attrs: nounwind uwtable
define range(i32 0, 3) i32 @curl_global_init(i64 noundef %0) local_unnamed_addr #5 {
  %2 = atomicrmw xchg ptr @s_lock, i32 1 acquire, align 4
  %.not2.i = icmp eq i32 %2, 0
  br i1 %.not2.i, label %curl_simple_lock_lock.exit, label %.preheader.i

.loopexit.i:                                      ; preds = %.lr.ph.i, %.preheader.i
  %3 = atomicrmw xchg ptr @s_lock, i32 1 acquire, align 4
  %.not.i = icmp eq i32 %3, 0
  br i1 %.not.i, label %curl_simple_lock_lock.exit, label %.preheader.i

.preheader.i:                                     ; preds = %1, %.loopexit.i
  %4 = load atomic i32, ptr @s_lock monotonic, align 4
  %.not41.i = icmp eq i32 %4, 0
  br i1 %.not41.i, label %.loopexit.i, label %.lr.ph.i

.lr.ph.i:                                         ; preds = %.preheader.i, %.lr.ph.i
  tail call void @llvm.x86.sse2.pause()
  %5 = load atomic i32, ptr @s_lock monotonic, align 4
  %.not4.i = icmp eq i32 %5, 0
  br i1 %.not4.i, label %.loopexit.i, label %.lr.ph.i, !llvm.loop !3

curl_simple_lock_lock.exit:                       ; preds = %.loopexit.i, %1
  %6 = load i32, ptr @initialized, align 4, !tbaa !5
  %7 = add i32 %6, 1
  store i32 %7, ptr @initialized, align 4, !tbaa !5
  %.not.i2 = icmp eq i32 %6, 0
  br i1 %.not.i2, label %8, label %global_init.exit

8:                                                ; preds = %curl_simple_lock_lock.exit
  store ptr @malloc, ptr @Curl_cmalloc, align 8, !tbaa !9
  store ptr @free, ptr @Curl_cfree, align 8, !tbaa !9
  store ptr @realloc, ptr @Curl_crealloc, align 8, !tbaa !9
  store ptr @strdup, ptr @Curl_cstrdup, align 8, !tbaa !9
  store ptr @calloc, ptr @Curl_ccalloc, align 8, !tbaa !9
  %9 = tail call i32 @Curl_trc_init() #11
  %.not3.i = icmp eq i32 %9, 0
  br i1 %.not3.i, label %10, label %14

10:                                               ; preds = %8
  %11 = tail call i32 @Curl_ssl_init() #11
  %.not4.i3 = icmp eq i32 %11, 0
  br i1 %.not4.i3, label %14, label %12

12:                                               ; preds = %10
  %13 = tail call i32 @Curl_resolver_global_init() #11
  %.not5.i = icmp eq i32 %13, 0
  br i1 %.not5.i, label %global_init.exit, label %14

14:                                               ; preds = %12, %10, %8
  %15 = load i32, ptr @initialized, align 4, !tbaa !5
  %16 = add i32 %15, -1
  store i32 %16, ptr @initialized, align 4, !tbaa !5
  br label %global_init.exit

global_init.exit:                                 ; preds = %curl_simple_lock_lock.exit, %12, %14
  %.0.i = phi i32 [ 2, %14 ], [ 0, %curl_simple_lock_lock.exit ], [ 0, %12 ]
  store atomic i32 0, ptr @s_lock release, align 4
  ret i32 %.0.i
}